target datalayout = "e-m:e-p270:32:32-p271:32:32-p272:64:64-i64:64-i128:128-f80:128-n8:16:32:64-S128"
target triple = "x86_64-pc-linux-gnu"

@hf_bitcoin_msg_headers = internal global i32 0, align 4
@hf_msg_headers_version = internal global i32 0, align 4
@hf_msg_headers_prev_block = internal global i32 0, align 4
@hf_msg_headers_merkle_root = internal global i32 0, align 4
@hf_msg_headers_time = internal global i32 0, align 4
@hf_msg_headers_bits = internal global i32 0, align 4
@hf_msg_headers_nonce = internal global i32 0, align 4
@hf_msg_headers_count8 = internal global i32 0, align 4
@hf_msg_headers_count16 = internal global i32 0, align 4
@hf_msg_headers_count32 = internal global i32 0, align 4
@hf_msg_headers_count64 = internal global i32 0, align 4
@ett_bitcoin_msg = internal global i32 0, align 4
@.str.322 = private unnamed_addr constant [7 x i8] c"Header\00", align 1

; Function Attrs: null_pointer_is_valid sspstrong uwtable
define internal void @get_varint(ptr noundef %0, i32 noundef %1, ptr noundef %2, ptr noundef %3) #0 {
  %5 = alloca ptr, align 8
  %6 = alloca i32, align 4
  %7 = alloca ptr, align 8
  %8 = alloca ptr, align 8
  %9 = alloca i32, align 4
  %10 = alloca i32, align 4
  store ptr %0, ptr %5, align 8
  store i32 %1, ptr %6, align 4
  store ptr %2, ptr %7, align 8
  store ptr %3, ptr %8, align 8
  call void @llvm.lifetime.start.p0(i64 4, ptr %9) #4
  %11 = load ptr, ptr %5, align 8
  %12 = load i32, ptr %6, align 4
  %13 = call zeroext i8 @tvb_get_uint8(ptr noundef %11, i32 noundef %12)
  %14 = zext i8 %13 to i32
  store i32 %14, ptr %9, align 4
  %15 = load i32, ptr %9, align 4
  %16 = icmp ult i32 %15, 253
  br i1 %16, label %17, label %22

17:                                               ; preds = %4
  %18 = load ptr, ptr %7, align 8
  store i32 1, ptr %18, align 4
  %19 = load i32, ptr %9, align 4
  %20 = zext i32 %19 to i64
  %21 = load ptr, ptr %8, align 8
  store i64 %20, ptr %21, align 8
  store i32 1, ptr %10, align 4
  br label %51

22:                                               ; preds = %4
  %23 = load i32, ptr %9, align 4
  %24 = icmp eq i32 %23, 253
  br i1 %24, label %25, label %33

25:                                               ; preds = %22
  %26 = load ptr, ptr %7, align 8
  store i32 3, ptr %26, align 4
  %27 = load ptr, ptr %5, align 8
  %28 = load i32, ptr %6, align 4
  %29 = add i32 %28, 1
  %30 = call zeroext i16 @tvb_get_letohs(ptr noundef %27, i32 noundef %29)
  %31 = zext i16 %30 to i64
  %32 = load ptr, ptr %8, align 8
  store i64 %31, ptr %32, align 8
  store i32 1, ptr %10, align 4
  br label %51

33:                                               ; preds = %22
  %34 = load i32, ptr %9, align 4
  %35 = icmp eq i32 %34, 254
  br i1 %35, label %36, label %44

36:                                               ; preds = %33
  %37 = load ptr, ptr %7, align 8
  store i32 5, ptr %37, align 4
  %38 = load ptr, ptr %5, align 8
  %39 = load i32, ptr %6, align 4
  %40 = add i32 %39, 1
  %41 = call i32 @tvb_get_letohl(ptr noundef %38, i32 noundef %40)
  %42 = zext i32 %41 to i64
  %43 = load ptr, ptr %8, align 8
  store i64 %42, ptr %43, align 8
  store i32 1, ptr %10, align 4
  br label %51

44:                                               ; preds = %33
  %45 = load ptr, ptr %7, align 8
  store i32 9, ptr %45, align 4
  %46 = load ptr, ptr %5, align 8
  %47 = load i32, ptr %6, align 4
  %48 = add i32 %47, 1
  %49 = call i64 @tvb_get_letoh64(ptr noundef %46, i32 noundef %48)
  %50 = load ptr, ptr %8, align 8
  store i64 %49, ptr %50, align 8
  store i32 1, ptr %10, align 4
  br label %51

51:                                               ; preds = %44, %36, %25, %17
  call void @llvm.lifetime.end.p0(i64 4, ptr %9) #4
  ret void
}

; Function Attrs: null_pointer_is_valid sspstrong uwtable
define internal i32 @dissect_bitcoin_msg_headers(ptr noundef %0, ptr noundef %1, ptr noundef %2, ptr noundef %3) #0 {
  %5 = alloca ptr, align 8
  %6 = alloca ptr, align 8
  %7 = alloca ptr, align 8
  %8 = alloca ptr, align 8
  %9 = alloca ptr, align 8
  %10 = alloca i32, align 4
  %11 = alloca i64, align 8
  %12 = alloca i32, align 4
  %13 = alloca ptr, align 8
  %14 = alloca i64, align 8
  store ptr %0, ptr %5, align 8
  store ptr %1, ptr %6, align 8
  store ptr %2, ptr %7, align 8
  store ptr %3, ptr %8, align 8
  call void @llvm.lifetime.start.p0(i64 8, ptr %9) #4
  call void @llvm.lifetime.start.p0(i64 4, ptr %10) #4
  call void @llvm.lifetime.start.p0(i64 8, ptr %11) #4
  call void @llvm.lifetime.start.p0(i64 4, ptr %12) #4
  store i32 0, ptr %12, align 4
  %15 = load ptr, ptr %7, align 8
  %16 = load i32, ptr @hf_bitcoin_msg_headers, align 4
  %17 = load ptr, ptr %5, align 8
  %18 = load i32, ptr %12, align 4
  %19 = call ptr @proto_tree_add_item(ptr noundef %15, i32 noundef %16, ptr noundef %17, i32 noundef %18, i32 noundef -1, i32 noundef 0)
  store ptr %19, ptr %9, align 8
  %20 = load ptr, ptr %9, align 8
  %21 = load i32, ptr @ett_bitcoin_msg, align 4
  %22 = call ptr @proto_item_add_subtree(ptr noundef %20, i32 noundef %21)
  store ptr %22, ptr %7, align 8
  %23 = load ptr, ptr %5, align 8
  %24 = load i32, ptr %12, align 4
  call void @get_varint(ptr noundef %23, i32 noundef %24, ptr noundef %10, ptr noundef %11)
  %25 = load ptr, ptr %7, align 8
  %26 = load ptr, ptr %5, align 8
  %27 = load i32, ptr %12, align 4
  %28 = load i32, ptr %10, align 4
  %29 = load i32, ptr @hf_msg_headers_count8, align 4
  %30 = load i32, ptr @hf_msg_headers_count16, align 4
  %31 = load i32, ptr @hf_msg_headers_count32, align 4
  %32 = load i32, ptr @hf_msg_headers_count64, align 4
  call void @add_varint_item(ptr noundef %25, ptr noundef %26, i32 noundef %27, i32 noundef %28, i32 noundef %29, i32 noundef %30, i32 noundef %31, i32 noundef %32)
  %33 = load i32, ptr %10, align 4
  %34 = load i32, ptr %12, align 4
  %35 = add i32 %34, %33
  store i32 %35, ptr %12, align 4
  br label %36

36:                                               ; preds = %103, %4
  %37 = load i64, ptr %11, align 8
  %38 = icmp ugt i64 %37, 0
  br i1 %38, label %39, label %106

39:                                               ; preds = %36
  call void @llvm.lifetime.start.p0(i64 8, ptr %13) #4
  call void @llvm.lifetime.start.p0(i64 8, ptr %14) #4
  %40 = load ptr, ptr %7, align 8
  %41 = load ptr, ptr %5, align 8
  %42 = load i32, ptr %12, align 4
  %43 = load i32, ptr @ett_bitcoin_msg, align 4
  %44 = call ptr @proto_tree_add_subtree(ptr noundef %40, ptr noundef %41, i32 noundef %42, i32 noundef -1, i32 noundef %43, ptr noundef null, ptr noundef @.str.322)
  store ptr %44, ptr %13, align 8
  %45 = load ptr, ptr %13, align 8
  %46 = load i32, ptr @hf_msg_headers_version, align 4
  %47 = load ptr, ptr %5, align 8
  %48 = load i32, ptr %12, align 4
  %49 = call ptr @proto_tree_add_item(ptr noundef %45, i32 noundef %46, ptr noundef %47, i32 noundef %48, i32 noundef 4, i32 noundef -2147483648)
  %50 = load i32, ptr %12, align 4
  %51 = add i32 %50, 4
  store i32 %51, ptr %12, align 4
  %52 = load ptr, ptr %13, align 8
  %53 = load i32, ptr @hf_msg_headers_prev_block, align 4
  %54 = load ptr, ptr %5, align 8
  %55 = load i32, ptr %12, align 4
  %56 = call ptr @proto_tree_add_item(ptr noundef %52, i32 noundef %53, ptr noundef %54, i32 noundef %55, i32 noundef 32, i32 noundef 0)
  %57 = load i32, ptr %12, align 4
  %58 = add i32 %57, 32
  store i32 %58, ptr %12, align 4
  %59 = load ptr, ptr %13, align 8
  %60 = load i32, ptr @hf_msg_headers_merkle_root, align 4
  %61 = load ptr, ptr %5, align 8
  %62 = load i32, ptr %12, align 4
  %63 = call ptr @proto_tree_add_item(ptr noundef %59, i32 noundef %60, ptr noundef %61, i32 noundef %62, i32 noundef 32, i32 noundef 0)
  %64 = load i32, ptr %12, align 4
  %65 = add i32 %64, 32
  store i32 %65, ptr %12, align 4
  %66 = load ptr, ptr %13, align 8
  %67 = load i32, ptr @hf_msg_headers_time, align 4
  %68 = load ptr, ptr %5, align 8
  %69 = load i32, ptr %12, align 4
  %70 = call ptr @proto_tree_add_item(ptr noundef %66, i32 noundef %67, ptr noundef %68, i32 noundef %69, i32 noundef 4, i32 noundef -2147483630)
  %71 = load i32, ptr %12, align 4
  %72 = add i32 %71, 4
  store i32 %72, ptr %12, align 4
  %73 = load ptr, ptr %13, align 8
  %74 = load i32, ptr @hf_msg_headers_bits, align 4
  %75 = load ptr, ptr %5, align 8
  %76 = load i32, ptr %12, align 4
  %77 = call ptr @proto_tree_add_item(ptr noundef %73, i32 noundef %74, ptr noundef %75, i32 noundef %76, i32 noundef 4, i32 noundef -2147483648)
  %78 = load i32, ptr %12, align 4
  %79 = add i32 %78, 4
  store i32 %79, ptr %12, align 4
  %80 = load ptr, ptr %13, align 8
  %81 = load i32, ptr @hf_msg_headers_nonce, align 4
  %82 = load ptr, ptr %5, align 8
  %83 = load i32, ptr %12, align 4
  %84 = call ptr @proto_tree_add_item(ptr noundef %80, i32 noundef %81, ptr noundef %82, i32 noundef %83, i32 noundef 4, i32 noundef -2147483648)
  %85 = load i32, ptr %12, align 4
  %86 = add i32 %85, 4
  store i32 %86, ptr %12, align 4
  %87 = load ptr, ptr %5, align 8
  %88 = load i32, ptr %12, align 4
  call void @get_varint(ptr noundef %87, i32 noundef %88, ptr noundef %10, ptr noundef %14)
  %89 = load ptr, ptr %13, align 8
  %90 = load ptr, ptr %5, align 8
  %91 = load i32, ptr %12, align 4
  %92 = load i32, ptr %10, align 4
  %93 = load i32, ptr @hf_msg_headers_count8, align 4
  %94 = load i32, ptr @hf_msg_headers_count16, align 4
  %95 = load i32, ptr @hf_msg_headers_count32, align 4
  %96 = load i32, ptr @hf_msg_headers_count64, align 4
  call void @add_varint_item(ptr noundef %89, ptr noundef %90, i32 noundef %91, i32 noundef %92, i32 noundef %93, i32 noundef %94, i32 noundef %95, i32 noundef %96)
  %97 = load i32, ptr %10, align 4
  %98 = load i32, ptr %12, align 4
  %99 = add i32 %98, %97
  store i32 %99, ptr %12, align 4
  %100 = load ptr, ptr %13, align 8
  %101 = load i32, ptr %10, align 4
  %102 = add i32 80, %101
  call void @proto_item_set_len(ptr noundef %100, i32 noundef %102)
  call void @llvm.lifetime.end.p0(i64 8, ptr %14) #4
  call void @llvm.lifetime.end.p0(i64 8, ptr %13) #4
  br label %103

103:                                              ; preds = %39
  %104 = load i64, ptr %11, align 8
  %105 = add i64 %104, -1
  store i64 %105, ptr %11, align 8
  br label %36, !llvm.loop !17

106:                                              ; preds = %36
  %107 = load i32, ptr %12, align 4
  call void @llvm.lifetime.end.p0(i64 4, ptr %12) #4
  call void @llvm.lifetime.end.p0(i64 8, ptr %11) #4
  call void @llvm.lifetime.end.p0(i64 4, ptr %10) #4
  call void @llvm.lifetime.end.p0(i64 8, ptr %9) #4
  ret i32 %107
}