; Function Attrs: null_pointer_is_valid sspstrong uwtable
define internal noundef i32 @dissect_bitcoin_msg_headers(ptr noundef %0, ptr readnone captures(none) %1, ptr noundef %2, ptr readnone captures(none) %3) #0 {
  %5 = load i32, ptr @hf_bitcoin_msg_headers, align 4
  %6 = tail call ptr @proto_tree_add_item(ptr noundef %2, i32 noundef %5, ptr noundef %0, i32 noundef 0, i32 noundef -1, i32 noundef 0)
  %7 = load i32, ptr @ett_bitcoin_msg, align 4
  %8 = tail call ptr @proto_item_add_subtree(ptr noundef %6, i32 noundef %7)
  %9 = tail call zeroext i8 @tvb_get_uint8(ptr noundef %0, i32 noundef 0)
  %10 = icmp ult i8 %9, -3
  br i1 %10, label %12, label %11

11:                                               ; preds = %4
  switch i8 %9, label %26 [
    i8 -3, label %16
    i8 -2, label %21
  ]

12:                                               ; preds = %4
  %13 = zext i8 %9 to i64
  %14 = load i32, ptr @hf_msg_headers_count8, align 4
  %15 = tail call ptr @proto_tree_add_item(ptr noundef %8, i32 noundef %14, ptr noundef %0, i32 noundef 0, i32 noundef 1, i32 noundef -2147483648)
  br label %add_varint_item.exit

16:                                               ; preds = %11
  %17 = tail call zeroext i16 @tvb_get_letohs(ptr noundef %0, i32 noundef 1)
  %18 = zext i16 %17 to i64
  %19 = load i32, ptr @hf_msg_headers_count16, align 4
  %20 = tail call ptr @proto_tree_add_item(ptr noundef %8, i32 noundef %19, ptr noundef %0, i32 noundef 1, i32 noundef 2, i32 noundef -2147483648)
  br label %add_varint_item.exit

21:                                               ; preds = %11
  %22 = tail call i32 @tvb_get_letohl(ptr noundef %0, i32 noundef 1)
  %23 = zext i32 %22 to i64
  %24 = load i32, ptr @hf_msg_headers_count32, align 4
  %25 = tail call ptr @proto_tree_add_item(ptr noundef %8, i32 noundef %24, ptr noundef %0, i32 noundef 1, i32 noundef 4, i32 noundef -2147483648)
  br label %add_varint_item.exit

26:                                               ; preds = %11
  %27 = tail call i64 @tvb_get_letoh64(ptr noundef %0, i32 noundef 1)
  %28 = load i32, ptr @hf_msg_headers_count64, align 4
  %29 = tail call ptr @proto_tree_add_item(ptr noundef %8, i32 noundef %28, ptr noundef %0, i32 noundef 1, i32 noundef 8, i32 noundef -2147483648)
  br label %add_varint_item.exit

add_varint_item.exit:                             ; preds = %12, %16, %21, %26
  %.sink.i58 = phi i64 [ %13, %12 ], [ %18, %16 ], [ %23, %21 ], [ %27, %26 ]
  %.05156 = phi i32 [ 1, %12 ], [ 3, %16 ], [ 5, %21 ], [ 9, %26 ]
  %.not69 = icmp eq i64 %.sink.i58, 0
  br i1 %.not69, label %._crit_edge, label %.lr.ph

.lr.ph:                                           ; preds = %add_varint_item.exit, %get_varint.exit45
  %.071 = phi i32 [ %64, %get_varint.exit45 ], [ %.05156, %add_varint_item.exit ]
  %.05270 = phi i64 [ %66, %get_varint.exit45 ], [ %.sink.i58, %add_varint_item.exit ]
  %30 = load i32, ptr @ett_bitcoin_msg, align 4
  %31 = tail call ptr @proto_tree_add_subtree(ptr noundef %8, ptr noundef %0, i32 noundef %.071, i32 noundef -1, i32 noundef %30, ptr noundef null, ptr noundef nonnull @.str.322)
  %32 = load i32, ptr @hf_msg_headers_version, align 4
  %33 = tail call ptr @proto_tree_add_item(ptr noundef %31, i32 noundef %32, ptr noundef %0, i32 noundef %.071, i32 noundef 4, i32 noundef -2147483648)
  %34 = add i32 %.071, 4
  %35 = load i32, ptr @hf_msg_headers_prev_block, align 4
  %36 = tail call ptr @proto_tree_add_item(ptr noundef %31, i32 noundef %35, ptr noundef %0, i32 noundef %34, i32 noundef 32, i32 noundef 0)
  %37 = add i32 %.071, 36
  %38 = load i32, ptr @hf_msg_headers_merkle_root, align 4
  %39 = tail call ptr @proto_tree_add_item(ptr noundef %31, i32 noundef %38, ptr noundef %0, i32 noundef %37, i32 noundef 32, i32 noundef 0)
  %40 = add i32 %.071, 68
  %41 = load i32, ptr @hf_msg_headers_time, align 4
  %42 = tail call ptr @proto_tree_add_item(ptr noundef %31, i32 noundef %41, ptr noundef %0, i32 noundef %40, i32 noundef 4, i32 noundef -2147483630)
  %43 = add i32 %.071, 72
  %44 = load i32, ptr @hf_msg_headers_bits, align 4
  %45 = tail call ptr @proto_tree_add_item(ptr noundef %31, i32 noundef %44, ptr noundef %0, i32 noundef %43, i32 noundef 4, i32 noundef -2147483648)
  %46 = add i32 %.071, 76
  %47 = load i32, ptr @hf_msg_headers_nonce, align 4
  %48 = tail call ptr @proto_tree_add_item(ptr noundef %31, i32 noundef %47, ptr noundef %0, i32 noundef %46, i32 noundef 4, i32 noundef -2147483648)
  %49 = add i32 %.071, 80
  %50 = tail call zeroext i8 @tvb_get_uint8(ptr noundef %0, i32 noundef %49)
  %51 = icmp ult i8 %50, -3
  br i1 %51, label %get_varint.exit45, label %52

52:                                               ; preds = %.lr.ph
  %53 = add i32 %.071, 81
  switch i8 %50, label %58 [
    i8 -3, label %54
    i8 -2, label %56
  ]

54:                                               ; preds = %52
  %55 = tail call zeroext i16 @tvb_get_letohs(ptr noundef %0, i32 noundef %53)
  br label %get_varint.exit45

56:                                               ; preds = %52
  %57 = tail call i32 @tvb_get_letohl(ptr noundef %0, i32 noundef %53)
  br label %get_varint.exit45

58:                                               ; preds = %52
  %59 = tail call i64 @tvb_get_letoh64(ptr noundef %0, i32 noundef %53)
  br label %get_varint.exit45

get_varint.exit45:                                ; preds = %.lr.ph, %54, %56, %58
  %.1 = phi i32 [ 9, %58 ], [ 5, %56 ], [ 3, %54 ], [ 1, %.lr.ph ]
  %60 = load i32, ptr @hf_msg_headers_count8, align 4
  %61 = load i32, ptr @hf_msg_headers_count16, align 4
  %62 = load i32, ptr @hf_msg_headers_count32, align 4
  %63 = load i32, ptr @hf_msg_headers_count64, align 4
  tail call fastcc void @add_varint_item(ptr noundef %31, ptr noundef %0, i32 noundef %49, i32 noundef %.1, i32 noundef %60, i32 noundef %61, i32 noundef %62, i32 noundef %63)
  %64 = add i32 %.1, %49
  %65 = or disjoint i32 %.1, 80
  tail call void @proto_item_set_len(ptr noundef %31, i32 noundef %65)
  %66 = add i64 %.05270, -1
  %.not = icmp eq i64 %66, 0
  br i1 %.not, label %._crit_edge, label %.lr.ph, !llvm.loop !17

._crit_edge:                                      ; preds = %get_varint.exit45, %add_varint_item.exit
  %.0.lcssa = phi i32 [ %.05156, %add_varint_item.exit ], [ %64, %get_varint.exit45 ]
  ret i32 %.0.lcssa
}